target datalayout = "e-m:e-p270:32:32-p271:32:32-p272:64:64-i64:64-i128:128-f80:128-n8:16:32:64-S128"
target triple = "x86_64-unknown-linux-gnu"

%struct.QTailQLink = type { ptr, ptr }
%struct.BlockDriverState = type { i32, i8, i8, i8, i8, i8, ptr, ptr, ptr, %struct.anon.0, i8, [4096 x i8], [4096 x i8], [4096 x i8], [16 x i8], ptr, [4096 x i8], %struct.BlockLimits, i32, i32, i32, i32, [32 x i8], %union.anon.1, %union.anon.2, %union.anon.3, i32, [16 x %struct.anon.4], ptr, %struct.anon.5, ptr, ptr, %struct.anon.6, ptr, ptr, i32, ptr, i64, i64, %struct.QemuMutex, %struct.anon.7, %struct.Stat64, i32, i32, i32, i32, i32, i32, %struct.QemuMutex, %struct.anon.8, %struct.CoQueue, i8, i32, i8, %struct.CoMutex, ptr, ptr }
%struct.anon.0 = type { ptr }
%struct.BlockLimits = type { i32, i64, i32, i64, i32, i32, i32, i64, i32, i64, i64, i32, i8, i32, i32, i32, i32, i32, i32, i32 }
%union.anon.1 = type { %struct.QTailQLink }
%union.anon.2 = type { %struct.QTailQLink }
%union.anon.3 = type { %struct.QTailQLink }
%struct.anon.4 = type { ptr }
%struct.anon.5 = type { ptr }
%struct.anon.6 = type { ptr }
%struct.anon.7 = type { ptr }
%struct.Stat64 = type { i64 }
%struct.QemuMutex = type { %union.pthread_mutex_t, i8 }
%union.pthread_mutex_t = type { %struct.__pthread_mutex_s }
%struct.__pthread_mutex_s = type { i32, i32, i32, i32, i32, i16, i16, %struct.__pthread_internal_list }
%struct.__pthread_internal_list = type { ptr, ptr }
%struct.anon.8 = type { ptr }
%struct.CoQueue = type { %struct.anon.9 }
%struct.anon.9 = type { ptr, ptr }
%struct.CoMutex = type { i32, ptr, %struct.anon.10, %struct.anon.10, i32, i32, ptr }
%struct.anon.10 = type { ptr }
%struct.BDRVVmdkState = type { %struct.CoMutex, i64, i8, i8, i32, i32, i32, ptr, ptr, ptr }
%struct.VmdkExtent = type { ptr, i8, i8, i8, i8, i8, i64, i64, i32, i32, i64, i64, i64, i64, i64, ptr, ptr, i32, i32, i32, ptr, [16 x i32], [16 x i32], i64, i64, ptr }
%struct.BlockDriverInfo = type { i32, i32, i64, i8, i8 }

@.str.24 = private unnamed_addr constant [21 x i8] c"../qemu/block/vmdk.c\00", align 1
@.str.126 = private unnamed_addr constant [15 x i8] c"s->num_extents\00", align 1
@__PRETTY_FUNCTION__.vmdk_co_get_info = private unnamed_addr constant [60 x i8] c"int vmdk_co_get_info(BlockDriverState *, BlockDriverInfo *)\00", align 1

; Function Attrs: nounwind sspstrong uwtable
define internal zeroext i1 @vmdk_extents_type_eq(ptr noundef %a, ptr noundef %b) #0 {
entry:
  %a.addr = alloca ptr, align 8
  %b.addr = alloca ptr, align 8
  store ptr %a, ptr %a.addr, align 8
  store ptr %b, ptr %b.addr, align 8
  %0 = load ptr, ptr %a.addr, align 8
  %flat = getelementptr inbounds %struct.VmdkExtent, ptr %0, i32 0, i32 1
  %1 = load i8, ptr %flat, align 8
  %tobool = trunc i8 %1 to i1
  %conv = zext i1 %tobool to i32
  %2 = load ptr, ptr %b.addr, align 8
  %flat1 = getelementptr inbounds %struct.VmdkExtent, ptr %2, i32 0, i32 1
  %3 = load i8, ptr %flat1, align 8
  %tobool2 = trunc i8 %3 to i1
  %conv3 = zext i1 %tobool2 to i32
  %cmp = icmp eq i32 %conv, %conv3
  br i1 %cmp, label %land.lhs.true, label %land.end

land.lhs.true:                                    ; preds = %entry
  %4 = load ptr, ptr %a.addr, align 8
  %compressed = getelementptr inbounds %struct.VmdkExtent, ptr %4, i32 0, i32 2
  %5 = load i8, ptr %compressed, align 1
  %tobool5 = trunc i8 %5 to i1
  %conv6 = zext i1 %tobool5 to i32
  %6 = load ptr, ptr %b.addr, align 8
  %compressed7 = getelementptr inbounds %struct.VmdkExtent, ptr %6, i32 0, i32 2
  %7 = load i8, ptr %compressed7, align 1
  %tobool8 = trunc i8 %7 to i1
  %conv9 = zext i1 %tobool8 to i32
  %cmp10 = icmp eq i32 %conv6, %conv9
  br i1 %cmp10, label %land.rhs, label %land.end

land.rhs:                                         ; preds = %land.lhs.true
  %8 = load ptr, ptr %a.addr, align 8
  %flat12 = getelementptr inbounds %struct.VmdkExtent, ptr %8, i32 0, i32 1
  %9 = load i8, ptr %flat12, align 8
  %tobool13 = trunc i8 %9 to i1
  br i1 %tobool13, label %lor.end, label %lor.rhs

lor.rhs:                                          ; preds = %land.rhs
  %10 = load ptr, ptr %a.addr, align 8
  %cluster_sectors = getelementptr inbounds %struct.VmdkExtent, ptr %10, i32 0, i32 23
  %11 = load i64, ptr %cluster_sectors, align 8
  %12 = load ptr, ptr %b.addr, align 8
  %cluster_sectors15 = getelementptr inbounds %struct.VmdkExtent, ptr %12, i32 0, i32 23
  %13 = load i64, ptr %cluster_sectors15, align 8
  %cmp16 = icmp eq i64 %11, %13
  br label %lor.end

lor.end:                                          ; preds = %lor.rhs, %land.rhs
  %14 = phi i1 [ true, %land.rhs ], [ %cmp16, %lor.rhs ]
  br label %land.end

land.end:                                         ; preds = %lor.end, %land.lhs.true, %entry
  %15 = phi i1 [ false, %land.lhs.true ], [ false, %entry ], [ %14, %lor.end ]
  ret i1 %15
}

; Function Attrs: nounwind sspstrong uwtable
define internal i32 @vmdk_co_get_info(ptr noundef %bs, ptr noundef %bdi) #0 {
entry:
  %retval = alloca i32, align 4
  %bs.addr = alloca ptr, align 8
  %bdi.addr = alloca ptr, align 8
  %i = alloca i32, align 4
  %s = alloca ptr, align 8
  store ptr %bs, ptr %bs.addr, align 8
  store ptr %bdi, ptr %bdi.addr, align 8
  %0 = load ptr, ptr %bs.addr, align 8
  %opaque = getelementptr inbounds %struct.BlockDriverState, ptr %0, i32 0, i32 7
  %1 = load ptr, ptr %opaque, align 8
  store ptr %1, ptr %s, align 8
  %2 = load ptr, ptr %s, align 8
  %num_extents = getelementptr inbounds %struct.BDRVVmdkState, ptr %2, i32 0, i32 6
  %3 = load i32, ptr %num_extents, align 4
  %tobool = icmp ne i32 %3, 0
  br i1 %tobool, label %if.then, label %if.else

if.then:                                          ; preds = %entry
  br label %if.end

if.else:                                          ; preds = %entry
  call void @__assert_fail(ptr noundef @.str.126, ptr noundef @.str.24, i32 noundef 3054, ptr noundef @__PRETTY_FUNCTION__.vmdk_co_get_info) #10
  unreachable

if.end:                                           ; preds = %if.then
  store i32 1, ptr %i, align 4
  br label %for.cond

for.cond:                                         ; preds = %for.inc, %if.end
  %4 = load i32, ptr %i, align 4
  %5 = load ptr, ptr %s, align 8
  %num_extents1 = getelementptr inbounds %struct.BDRVVmdkState, ptr %5, i32 0, i32 6
  %6 = load i32, ptr %num_extents1, align 4
  %cmp = icmp slt i32 %4, %6
  br i1 %cmp, label %for.body, label %for.end

for.body:                                         ; preds = %for.cond
  %7 = load ptr, ptr %s, align 8
  %extents = getelementptr inbounds %struct.BDRVVmdkState, ptr %7, i32 0, i32 7
  %8 = load ptr, ptr %extents, align 8
  %arrayidx = getelementptr %struct.VmdkExtent, ptr %8, i64 0
  %9 = load ptr, ptr %s, align 8
  %extents2 = getelementptr inbounds %struct.BDRVVmdkState, ptr %9, i32 0, i32 7
  %10 = load ptr, ptr %extents2, align 8
  %11 = load i32, ptr %i, align 4
  %idxprom = sext i32 %11 to i64
  %arrayidx3 = getelementptr %struct.VmdkExtent, ptr %10, i64 %idxprom
  %call = call zeroext i1 @vmdk_extents_type_eq(ptr noundef %arrayidx, ptr noundef %arrayidx3)
  br i1 %call, label %if.end5, label %if.then4

if.then4:                                         ; preds = %for.body
  store i32 -95, ptr %retval, align 4
  br label %return

if.end5:                                          ; preds = %for.body
  br label %for.inc

for.inc:                                          ; preds = %if.end5
  %12 = load i32, ptr %i, align 4
  %inc = add i32 %12, 1
  store i32 %inc, ptr %i, align 4
  br label %for.cond, !llvm.loop !16

for.end:                                          ; preds = %for.cond
  %13 = load ptr, ptr %s, align 8
  %extents6 = getelementptr inbounds %struct.BDRVVmdkState, ptr %13, i32 0, i32 7
  %14 = load ptr, ptr %extents6, align 8
  %arrayidx7 = getelementptr %struct.VmdkExtent, ptr %14, i64 0
  %compressed = getelementptr inbounds %struct.VmdkExtent, ptr %arrayidx7, i32 0, i32 2
  %15 = load i8, ptr %compressed, align 1
  %tobool8 = trunc i8 %15 to i1
  %16 = load ptr, ptr %bdi.addr, align 8
  %needs_compressed_writes = getelementptr inbounds %struct.BlockDriverInfo, ptr %16, i32 0, i32 4
  %frombool = zext i1 %tobool8 to i8
  store i8 %frombool, ptr %needs_compressed_writes, align 1
  %17 = load ptr, ptr %s, align 8
  %extents9 = getelementptr inbounds %struct.BDRVVmdkState, ptr %17, i32 0, i32 7
  %18 = load ptr, ptr %extents9, align 8
  %arrayidx10 = getelementptr %struct.VmdkExtent, ptr %18, i64 0
  %flat = getelementptr inbounds %struct.VmdkExtent, ptr %arrayidx10, i32 0, i32 1
  %19 = load i8, ptr %flat, align 8
  %tobool11 = trunc i8 %19 to i1
  br i1 %tobool11, label %if.end15, label %if.then12

if.then12:                                        ; preds = %for.end
  %20 = load ptr, ptr %s, align 8
  %extents13 = getelementptr inbounds %struct.BDRVVmdkState, ptr %20, i32 0, i32 7
  %21 = load ptr, ptr %extents13, align 8
  %arrayidx14 = getelementptr %struct.VmdkExtent, ptr %21, i64 0
  %cluster_sectors = getelementptr inbounds %struct.VmdkExtent, ptr %arrayidx14, i32 0, i32 23
  %22 = load i64, ptr %cluster_sectors, align 8
  %shl = shl i64 %22, 9
  %conv = trunc i64 %shl to i32
  %23 = load ptr, ptr %bdi.addr, align 8
  %cluster_size = getelementptr inbounds %struct.BlockDriverInfo, ptr %23, i32 0, i32 0
  store i32 %conv, ptr %cluster_size, align 8
  br label %if.end15

if.end15:                                         ; preds = %if.then12, %for.end
  store i32 0, ptr %retval, align 4
  br label %return

return:                                           ; preds = %if.end15, %if.then4
  %24 = load i32, ptr %retval, align 4
  ret i32 %24
}