; Function Attrs: nounwind sspstrong uwtable
define internal range(i32 -95, 1) i32 @vmdk_co_get_info(ptr noundef readonly captures(none) %bs, ptr noundef writeonly captures(none) %bdi) #0 {
entry:
  %opaque = getelementptr inbounds nuw i8, ptr %bs, i64 24
  %0 = load ptr, ptr %opaque, align 8
  %num_extents = getelementptr inbounds nuw i8, ptr %0, i64 68
  %1 = load i32, ptr %num_extents, align 4
  %tobool.not = icmp eq i32 %1, 0
  br i1 %tobool.not, label %if.else, label %for.cond.preheader

for.cond.preheader:                               ; preds = %entry
  %cmp10 = icmp sgt i32 %1, 1
  %extents = getelementptr inbounds nuw i8, ptr %0, i64 72
  %2 = load ptr, ptr %extents, align 8
  br i1 %cmp10, label %for.body.lr.ph, label %for.cond.preheader.for.end_crit_edge

for.cond.preheader.for.end_crit_edge:             ; preds = %for.cond.preheader
  %compressed.phi.trans.insert = getelementptr inbounds nuw i8, ptr %2, i64 9
  %.pre20 = load i8, ptr %compressed.phi.trans.insert, align 1
  br label %for.end

for.body.lr.ph:                                   ; preds = %for.cond.preheader
  %flat.i = getelementptr inbounds nuw i8, ptr %2, i64 8
  %3 = load i8, ptr %flat.i, align 8
  %.fr = freeze i8 %3
  %tobool.i = trunc i8 %.fr to i1
  %compressed.i = getelementptr inbounds nuw i8, ptr %2, i64 9
  %cluster_sectors.i = getelementptr inbounds nuw i8, ptr %2, i64 248
  %wide.trip.count18 = zext nneg i32 %1 to i64
  br i1 %tobool.i, label %for.body.us, label %for.body

for.body.us:                                      ; preds = %for.body.lr.ph, %for.inc.us
  %indvars.iv15 = phi i64 [ %indvars.iv.next16, %for.inc.us ], [ 1, %for.body.lr.ph ]
  %arrayidx3.us = getelementptr %struct.VmdkExtent, ptr %2, i64 %indvars.iv15
  %flat1.i.us = getelementptr inbounds nuw i8, ptr %arrayidx3.us, i64 8
  %4 = load i8, ptr %flat1.i.us, align 8
  %5 = xor i8 %4, %.fr
  %6 = and i8 %5, 1
  %cmp.i.us = icmp eq i8 %6, 0
  br i1 %cmp.i.us, label %land.lhs.true.i.us, label %return

land.lhs.true.i.us:                               ; preds = %for.body.us
  %7 = load i8, ptr %compressed.i, align 1
  %compressed7.i.us = getelementptr inbounds nuw i8, ptr %arrayidx3.us, i64 9
  %8 = load i8, ptr %compressed7.i.us, align 1
  %9 = xor i8 %8, %7
  %10 = and i8 %9, 1
  %cmp10.i.us.not = icmp eq i8 %10, 0
  br i1 %cmp10.i.us.not, label %for.inc.us, label %return

for.inc.us:                                       ; preds = %land.lhs.true.i.us
  %indvars.iv.next16 = add nuw nsw i64 %indvars.iv15, 1
  %exitcond19.not = icmp eq i64 %indvars.iv.next16, %wide.trip.count18
  br i1 %exitcond19.not, label %for.end, label %for.body.us, !llvm.loop !17

if.else:                                          ; preds = %entry
  tail call void @__assert_fail(ptr noundef nonnull @.str.126, ptr noundef nonnull @.str.24, i32 noundef 3054, ptr noundef nonnull @__PRETTY_FUNCTION__.vmdk_co_get_info) #16
  unreachable

for.body:                                         ; preds = %for.body.lr.ph, %for.inc
  %indvars.iv = phi i64 [ %indvars.iv.next, %for.inc ], [ 1, %for.body.lr.ph ]
  %arrayidx3 = getelementptr %struct.VmdkExtent, ptr %2, i64 %indvars.iv
  %flat1.i = getelementptr inbounds nuw i8, ptr %arrayidx3, i64 8
  %11 = load i8, ptr %flat1.i, align 8
  %12 = xor i8 %11, %.fr
  %13 = and i8 %12, 1
  %cmp.i = icmp eq i8 %13, 0
  br i1 %cmp.i, label %land.lhs.true.i, label %return

land.lhs.true.i:                                  ; preds = %for.body
  %14 = load i8, ptr %compressed.i, align 1
  %compressed7.i = getelementptr inbounds nuw i8, ptr %arrayidx3, i64 9
  %15 = load i8, ptr %compressed7.i, align 1
  %16 = xor i8 %15, %14
  %17 = and i8 %16, 1
  %cmp10.i.not = icmp eq i8 %17, 0
  br i1 %cmp10.i.not, label %lor.rhs.i, label %return

lor.rhs.i:                                        ; preds = %land.lhs.true.i
  %18 = load i64, ptr %cluster_sectors.i, align 8
  %cluster_sectors15.i = getelementptr inbounds nuw i8, ptr %arrayidx3, i64 248
  %19 = load i64, ptr %cluster_sectors15.i, align 8
  %cmp16.i = icmp eq i64 %18, %19
  br i1 %cmp16.i, label %for.inc, label %return

for.inc:                                          ; preds = %lor.rhs.i
  %indvars.iv.next = add nuw nsw i64 %indvars.iv, 1
  %exitcond.not = icmp eq i64 %indvars.iv.next, %wide.trip.count18
  br i1 %exitcond.not, label %for.end, label %for.body, !llvm.loop !17

for.end:                                          ; preds = %for.inc, %for.inc.us, %for.cond.preheader.for.end_crit_edge
  %20 = phi i8 [ %.pre20, %for.cond.preheader.for.end_crit_edge ], [ %7, %for.inc.us ], [ %14, %for.inc ]
  %extents6 = getelementptr inbounds nuw i8, ptr %0, i64 72
  %needs_compressed_writes = getelementptr inbounds nuw i8, ptr %bdi, i64 17
  %frombool = and i8 %20, 1
  store i8 %frombool, ptr %needs_compressed_writes, align 1
  %21 = load ptr, ptr %extents6, align 8
  %flat = getelementptr inbounds nuw i8, ptr %21, i64 8
  %22 = load i8, ptr %flat, align 8
  %tobool11 = trunc i8 %22 to i1
  br i1 %tobool11, label %return, label %if.then12

if.then12:                                        ; preds = %for.end
  %cluster_sectors = getelementptr inbounds nuw i8, ptr %21, i64 248
  %23 = load i64, ptr %cluster_sectors, align 8
  %.tr = trunc i64 %23 to i32
  %conv = shl i32 %.tr, 9
  store i32 %conv, ptr %bdi, align 8
  br label %return

return:                                           ; preds = %land.lhs.true.i, %lor.rhs.i, %for.body, %land.lhs.true.i.us, %for.body.us, %for.end, %if.then12
  %retval.0 = phi i32 [ 0, %if.then12 ], [ 0, %for.end ], [ -95, %for.body.us ], [ -95, %land.lhs.true.i.us ], [ -95, %for.body ], [ -95, %lor.rhs.i ], [ -95, %land.lhs.true.i ]
  ret i32 %retval.0
}